target datalayout = "e-m:e-p270:32:32-p271:32:32-p272:64:64-i64:64-i128:128-f80:128-n8:16:32:64-S128"
target triple = "x86_64-pc-linux-gnu"

%struct._object = type { %union.anon, ptr }
%union.anon = type { i64 }
%struct.PyVarObject = type { %struct._object, i64 }
%struct.PyListObject = type { %struct.PyVarObject, ptr, i64 }
%struct.anon = type { i32, i32 }

@PyExc_ValueError = external global ptr, align 8
@.str.28 = private unnamed_addr constant [6 x i8] c"index\00", align 1
@.str.38 = private unnamed_addr constant [29 x i8] c"list.index(x): x not in list\00", align 1

; Function Attrs: alwaysinline nounwind uwtable
define internal void @Py_INCREF(ptr noundef %0) #4 {
  %2 = alloca ptr, align 8
  %3 = alloca i32, align 4
  %4 = alloca i32, align 4
  store ptr %0, ptr %2, align 8, !tbaa !36
  call void @llvm.lifetime.start.p0(i64 4, ptr %3) #8
  %5 = load ptr, ptr %2, align 8, !tbaa !36
  %6 = getelementptr inbounds nuw %struct._object, ptr %5, i32 0, i32 0
  %7 = getelementptr inbounds nuw %struct.anon, ptr %6, i32 0, i32 0
  %8 = load i32, ptr %7, align 8, !tbaa !37
  store i32 %8, ptr %3, align 4, !tbaa !118
  %9 = load i32, ptr %3, align 4, !tbaa !118
  %10 = icmp slt i32 %9, 0
  br i1 %10, label %11, label %12

11:                                               ; preds = %1
  store i32 1, ptr %4, align 4
  br label %18

12:                                               ; preds = %1
  %13 = load i32, ptr %3, align 4, !tbaa !118
  %14 = add i32 %13, 1
  %15 = load ptr, ptr %2, align 8, !tbaa !36
  %16 = getelementptr inbounds nuw %struct._object, ptr %15, i32 0, i32 0
  %17 = getelementptr inbounds nuw %struct.anon, ptr %16, i32 0, i32 0
  store i32 %14, ptr %17, align 8, !tbaa !37
  store i32 0, ptr %4, align 4
  br label %18

18:                                               ; preds = %12, %11
  call void @llvm.lifetime.end.p0(i64 4, ptr %3) #8
  %19 = load i32, ptr %4, align 4
  switch i32 %19, label %21 [
    i32 0, label %20
    i32 1, label %20
  ]

20:                                               ; preds = %18, %18
  ret void

21:                                               ; preds = %18
  unreachable
}

; Function Attrs: alwaysinline nounwind uwtable
define internal i32 @_Py_IsImmortal(ptr noundef %0) #4 {
  %2 = alloca ptr, align 8
  store ptr %0, ptr %2, align 8, !tbaa !36
  %3 = load ptr, ptr %2, align 8, !tbaa !36
  %4 = getelementptr inbounds nuw %struct._object, ptr %3, i32 0, i32 0
  %5 = getelementptr inbounds nuw %struct.anon, ptr %4, i32 0, i32 0
  %6 = load i32, ptr %5, align 8, !tbaa !37
  %7 = icmp slt i32 %6, 0
  %8 = zext i1 %7 to i32
  ret i32 %8
}

; Function Attrs: inlinehint nounwind uwtable
define internal ptr @_Py_NewRef(ptr noundef %0) #2 {
  %2 = alloca ptr, align 8
  store ptr %0, ptr %2, align 8, !tbaa !36
  %3 = load ptr, ptr %2, align 8, !tbaa !36
  call void @Py_INCREF(ptr noundef %3)
  %4 = load ptr, ptr %2, align 8, !tbaa !36
  ret ptr %4
}

; Function Attrs: inlinehint nounwind uwtable
define internal i32 @valid_index(i64 noundef %0, i64 noundef %1) #2 {
  %3 = alloca i64, align 8
  %4 = alloca i64, align 8
  store i64 %0, ptr %3, align 8, !tbaa !26
  store i64 %1, ptr %4, align 8, !tbaa !26
  %5 = load i64, ptr %3, align 8, !tbaa !26
  %6 = load i64, ptr %4, align 8, !tbaa !26
  %7 = icmp ult i64 %5, %6
  %8 = zext i1 %7 to i32
  ret i32 %8
}

; Function Attrs: alwaysinline nounwind uwtable
define internal void @Py_DECREF(ptr noundef %0) #4 {
  %2 = alloca ptr, align 8
  store ptr %0, ptr %2, align 8, !tbaa !36
  %3 = load ptr, ptr %2, align 8, !tbaa !36
  %4 = call i32 @_Py_IsImmortal(ptr noundef %3)
  %5 = icmp ne i32 %4, 0
  br i1 %5, label %6, label %7

6:                                                ; preds = %1
  br label %16

7:                                                ; preds = %1
  %8 = load ptr, ptr %2, align 8, !tbaa !36
  %9 = getelementptr inbounds nuw %struct._object, ptr %8, i32 0, i32 0
  %10 = getelementptr inbounds nuw %struct.anon, ptr %9, i32 0, i32 0
  %11 = load i32, ptr %10, align 8, !tbaa !37
  %12 = add i32 %11, -1
  store i32 %12, ptr %10, align 8, !tbaa !37
  %13 = icmp eq i32 %12, 0
  br i1 %13, label %14, label %16

14:                                               ; preds = %7
  %15 = load ptr, ptr %2, align 8, !tbaa !36
  call void @_Py_Dealloc(ptr noundef %15)
  br label %16

16:                                               ; preds = %6, %14, %7
  ret void
}

; Function Attrs: inlinehint nounwind uwtable
define internal ptr @list_get_item_ref(ptr noundef %0, i64 noundef %1) #2 {
  %3 = alloca ptr, align 8
  %4 = alloca ptr, align 8
  %5 = alloca i64, align 8
  store ptr %0, ptr %4, align 8, !tbaa !27
  store i64 %1, ptr %5, align 8, !tbaa !26
  %6 = load i64, ptr %5, align 8, !tbaa !26
  %7 = load ptr, ptr %4, align 8, !tbaa !27
  %8 = call i64 @Py_SIZE(ptr noundef %7)
  %9 = call i32 @valid_index(i64 noundef %6, i64 noundef %8)
  %10 = icmp ne i32 %9, 0
  br i1 %10, label %12, label %11

11:                                               ; preds = %2
  store ptr null, ptr %3, align 8
  br label %20

12:                                               ; preds = %2
  %13 = load ptr, ptr %4, align 8, !tbaa !27
  %14 = getelementptr inbounds nuw %struct.PyListObject, ptr %13, i32 0, i32 1
  %15 = load ptr, ptr %14, align 8, !tbaa !28
  %16 = load i64, ptr %5, align 8, !tbaa !26
  %17 = getelementptr ptr, ptr %15, i64 %16
  %18 = load ptr, ptr %17, align 8, !tbaa !36
  %19 = call ptr @_Py_NewRef(ptr noundef %18)
  store ptr %19, ptr %3, align 8
  br label %20

20:                                               ; preds = %12, %11
  %21 = load ptr, ptr %3, align 8
  ret ptr %21
}

; Function Attrs: inlinehint nounwind uwtable
define internal i64 @Py_SIZE(ptr noundef %0) #2 {
  %2 = alloca ptr, align 8
  store ptr %0, ptr %2, align 8, !tbaa !36
  %3 = load ptr, ptr %2, align 8, !tbaa !36
  %4 = getelementptr inbounds nuw %struct.PyVarObject, ptr %3, i32 0, i32 1
  %5 = load i64, ptr %4, align 8, !tbaa !38
  ret i64 %5
}

; Function Attrs: nounwind uwtable
define internal ptr @list_index_impl(ptr noundef %0, ptr noundef %1, i64 noundef %2, i64 noundef %3) #0 {
  %5 = alloca ptr, align 8
  %6 = alloca ptr, align 8
  %7 = alloca ptr, align 8
  %8 = alloca i64, align 8
  %9 = alloca i64, align 8
  %10 = alloca i64, align 8
  %11 = alloca i32, align 4
  %12 = alloca ptr, align 8
  %13 = alloca i32, align 4
  store ptr %0, ptr %6, align 8, !tbaa !27
  store ptr %1, ptr %7, align 8, !tbaa !36
  store i64 %2, ptr %8, align 8, !tbaa !26
  store i64 %3, ptr %9, align 8, !tbaa !26
  %14 = load i64, ptr %8, align 8, !tbaa !26
  %15 = icmp slt i64 %14, 0
  br i1 %15, label %16, label %25

16:                                               ; preds = %4
  %17 = load ptr, ptr %6, align 8, !tbaa !27
  %18 = call i64 @Py_SIZE(ptr noundef %17)
  %19 = load i64, ptr %8, align 8, !tbaa !26
  %20 = add i64 %19, %18
  store i64 %20, ptr %8, align 8, !tbaa !26
  %21 = load i64, ptr %8, align 8, !tbaa !26
  %22 = icmp slt i64 %21, 0
  br i1 %22, label %23, label %24

23:                                               ; preds = %16
  store i64 0, ptr %8, align 8, !tbaa !26
  br label %24

24:                                               ; preds = %23, %16
  br label %25

25:                                               ; preds = %24, %4
  %26 = load i64, ptr %9, align 8, !tbaa !26
  %27 = icmp slt i64 %26, 0
  br i1 %27, label %28, label %37

28:                                               ; preds = %25
  %29 = load ptr, ptr %6, align 8, !tbaa !27
  %30 = call i64 @Py_SIZE(ptr noundef %29)
  %31 = load i64, ptr %9, align 8, !tbaa !26
  %32 = add i64 %31, %30
  store i64 %32, ptr %9, align 8, !tbaa !26
  %33 = load i64, ptr %9, align 8, !tbaa !26
  %34 = icmp slt i64 %33, 0
  br i1 %34, label %35, label %36

35:                                               ; preds = %28
  store i64 0, ptr %9, align 8, !tbaa !26
  br label %36

36:                                               ; preds = %35, %28
  br label %37

37:                                               ; preds = %36, %25
  call void @llvm.lifetime.start.p0(i64 8, ptr %10) #8
  %38 = load i64, ptr %8, align 8, !tbaa !26
  store i64 %38, ptr %10, align 8, !tbaa !26
  br label %39

39:                                               ; preds = %71, %37
  %40 = load i64, ptr %10, align 8, !tbaa !26
  %41 = load i64, ptr %9, align 8, !tbaa !26
  %42 = icmp slt i64 %40, %41
  br i1 %42, label %44, label %43

43:                                               ; preds = %39
  store i32 2, ptr %11, align 4
  br label %74

44:                                               ; preds = %39
  call void @llvm.lifetime.start.p0(i64 8, ptr %12) #8
  %45 = load ptr, ptr %6, align 8, !tbaa !27
  %46 = load i64, ptr %10, align 8, !tbaa !26
  %47 = call ptr @list_get_item_ref(ptr noundef %45, i64 noundef %46)
  store ptr %47, ptr %12, align 8, !tbaa !36
  %48 = load ptr, ptr %12, align 8, !tbaa !36
  %49 = icmp eq ptr %48, null
  br i1 %49, label %50, label %51

50:                                               ; preds = %44
  store i32 2, ptr %11, align 4
  br label %68

51:                                               ; preds = %44
  call void @llvm.lifetime.start.p0(i64 4, ptr %13) #8
  %52 = load ptr, ptr %12, align 8, !tbaa !36
  %53 = load ptr, ptr %7, align 8, !tbaa !36
  %54 = call i32 @PyObject_RichCompareBool(ptr noundef %52, ptr noundef %53, i32 noundef 2)
  store i32 %54, ptr %13, align 4, !tbaa !118
  %55 = load ptr, ptr %12, align 8, !tbaa !36
  call void @Py_DECREF(ptr noundef %55)
  %56 = load i32, ptr %13, align 4, !tbaa !118
  %57 = icmp sgt i32 %56, 0
  br i1 %57, label %58, label %61

58:                                               ; preds = %51
  %59 = load i64, ptr %10, align 8, !tbaa !26
  %60 = call ptr @PyLong_FromSsize_t(i64 noundef %59)
  store ptr %60, ptr %5, align 8
  store i32 1, ptr %11, align 4
  br label %67

61:                                               ; preds = %51
  %62 = load i32, ptr %13, align 4, !tbaa !118
  %63 = icmp slt i32 %62, 0
  br i1 %63, label %64, label %65

64:                                               ; preds = %61
  store ptr null, ptr %5, align 8
  store i32 1, ptr %11, align 4
  br label %67

65:                                               ; preds = %61
  br label %66

66:                                               ; preds = %65
  store i32 0, ptr %11, align 4
  br label %67

67:                                               ; preds = %66, %64, %58
  call void @llvm.lifetime.end.p0(i64 4, ptr %13) #8
  br label %68

68:                                               ; preds = %67, %50
  call void @llvm.lifetime.end.p0(i64 8, ptr %12) #8
  %69 = load i32, ptr %11, align 4
  switch i32 %69, label %74 [
    i32 0, label %70
  ]

70:                                               ; preds = %68
  br label %71

71:                                               ; preds = %70
  %72 = load i64, ptr %10, align 8, !tbaa !26
  %73 = add i64 %72, 1
  store i64 %73, ptr %10, align 8, !tbaa !26
  br label %39, !llvm.loop !243

74:                                               ; preds = %68, %43
  call void @llvm.lifetime.end.p0(i64 8, ptr %10) #8
  %75 = load i32, ptr %11, align 4
  switch i32 %75, label %80 [
    i32 2, label %76
    i32 1, label %78
  ]

76:                                               ; preds = %74
  %77 = load ptr, ptr @PyExc_ValueError, align 8, !tbaa !36
  call void @PyErr_SetString(ptr noundef %77, ptr noundef @.str.38)
  store ptr null, ptr %5, align 8
  br label %78

78:                                               ; preds = %76, %74
  %79 = load ptr, ptr %5, align 8
  ret ptr %79

80:                                               ; preds = %74
  unreachable
}

; Function Attrs: nounwind uwtable
define internal ptr @list_index(ptr noundef %0, ptr noundef %1, i64 noundef %2) #0 {
  %4 = alloca ptr, align 8
  %5 = alloca ptr, align 8
  %6 = alloca i64, align 8
  %7 = alloca ptr, align 8
  %8 = alloca ptr, align 8
  %9 = alloca i64, align 8
  %10 = alloca i64, align 8
  store ptr %0, ptr %4, align 8, !tbaa !36
  store ptr %1, ptr %5, align 8, !tbaa !119
  store i64 %2, ptr %6, align 8, !tbaa !26
  call void @llvm.lifetime.start.p0(i64 8, ptr %7) #8
  store ptr null, ptr %7, align 8, !tbaa !36
  call void @llvm.lifetime.start.p0(i64 8, ptr %8) #8
  call void @llvm.lifetime.start.p0(i64 8, ptr %9) #8
  store i64 0, ptr %9, align 8, !tbaa !26
  call void @llvm.lifetime.start.p0(i64 8, ptr %10) #8
  store i64 9223372036854775807, ptr %10, align 8, !tbaa !26
  %11 = load i64, ptr %6, align 8, !tbaa !26
  %12 = icmp sle i64 1, %11
  br i1 %12, label %13, label %16

13:                                               ; preds = %3
  %14 = load i64, ptr %6, align 8, !tbaa !26
  %15 = icmp sle i64 %14, 3
  br i1 %15, label %21, label %16

16:                                               ; preds = %13, %3
  %17 = load i64, ptr %6, align 8, !tbaa !26
  %18 = call i32 @_PyArg_CheckPositional(ptr noundef @.str.28, i64 noundef %17, i64 noundef 1, i64 noundef 3)
  %19 = icmp ne i32 %18, 0
  br i1 %19, label %21, label %20

20:                                               ; preds = %16
  br label %53

21:                                               ; preds = %16, %13
  %22 = load ptr, ptr %5, align 8, !tbaa !119
  %23 = getelementptr ptr, ptr %22, i64 0
  %24 = load ptr, ptr %23, align 8, !tbaa !36
  store ptr %24, ptr %8, align 8, !tbaa !36
  %25 = load i64, ptr %6, align 8, !tbaa !26
  %26 = icmp slt i64 %25, 2
  br i1 %26, label %27, label %28

27:                                               ; preds = %21
  br label %47

28:                                               ; preds = %21
  %29 = load ptr, ptr %5, align 8, !tbaa !119
  %30 = getelementptr ptr, ptr %29, i64 1
  %31 = load ptr, ptr %30, align 8, !tbaa !36
  %32 = call i32 @_PyEval_SliceIndexNotNone(ptr noundef %31, ptr noundef %9)
  %33 = icmp ne i32 %32, 0
  br i1 %33, label %35, label %34

34:                                               ; preds = %28
  br label %53

35:                                               ; preds = %28
  %36 = load i64, ptr %6, align 8, !tbaa !26
  %37 = icmp slt i64 %36, 3
  br i1 %37, label %38, label %39

38:                                               ; preds = %35
  br label %47

39:                                               ; preds = %35
  %40 = load ptr, ptr %5, align 8, !tbaa !119
  %41 = getelementptr ptr, ptr %40, i64 2
  %42 = load ptr, ptr %41, align 8, !tbaa !36
  %43 = call i32 @_PyEval_SliceIndexNotNone(ptr noundef %42, ptr noundef %10)
  %44 = icmp ne i32 %43, 0
  br i1 %44, label %46, label %45

45:                                               ; preds = %39
  br label %53

46:                                               ; preds = %39
  br label %47

47:                                               ; preds = %46, %38, %27
  %48 = load ptr, ptr %4, align 8, !tbaa !36
  %49 = load ptr, ptr %8, align 8, !tbaa !36
  %50 = load i64, ptr %9, align 8, !tbaa !26
  %51 = load i64, ptr %10, align 8, !tbaa !26
  %52 = call ptr @list_index_impl(ptr noundef %48, ptr noundef %49, i64 noundef %50, i64 noundef %51)
  store ptr %52, ptr %7, align 8, !tbaa !36
  br label %53

53:                                               ; preds = %47, %45, %34, %20
  %54 = load ptr, ptr %7, align 8, !tbaa !36
  call void @llvm.lifetime.end.p0(i64 8, ptr %10) #8
  call void @llvm.lifetime.end.p0(i64 8, ptr %9) #8
  call void @llvm.lifetime.end.p0(i64 8, ptr %8) #8
  call void @llvm.lifetime.end.p0(i64 8, ptr %7) #8
  ret ptr %54
}