; Function Attrs: nounwind uwtable
define internal ptr @list_index(ptr noundef readonly captures(none) %0, ptr noundef readonly captures(none) %1, i64 noundef %2) #0 {
  %4 = alloca i64, align 8
  %5 = alloca i64, align 8
  call void @llvm.lifetime.start.p0(i64 8, ptr nonnull %4) #12
  store i64 0, ptr %4, align 8, !tbaa !118
  call void @llvm.lifetime.start.p0(i64 8, ptr nonnull %5) #12
  store i64 9223372036854775807, ptr %5, align 8, !tbaa !118
  %6 = add i64 %2, -1
  %or.cond = icmp ult i64 %6, 3
  br i1 %or.cond, label %9, label %7

7:                                                ; preds = %3
  %8 = tail call i32 @_PyArg_CheckPositional(ptr noundef nonnull @.str.28, i64 noundef %2, i64 noundef 1, i64 noundef 3) #12
  %.not = icmp eq i32 %8, 0
  br i1 %.not, label %list_index_impl.exit, label %9

9:                                                ; preds = %3, %7
  %10 = load ptr, ptr %1, align 8, !tbaa !112
  %11 = icmp slt i64 %2, 2
  br i1 %11, label %22, label %12

12:                                               ; preds = %9
  %13 = getelementptr i8, ptr %1, i64 8
  %14 = load ptr, ptr %13, align 8, !tbaa !112
  %15 = call i32 @_PyEval_SliceIndexNotNone(ptr noundef %14, ptr noundef nonnull %4) #12
  %.not12 = icmp eq i32 %15, 0
  br i1 %.not12, label %list_index_impl.exit, label %16

16:                                               ; preds = %12
  %17 = icmp eq i64 %2, 2
  br i1 %17, label %22, label %18

18:                                               ; preds = %16
  %19 = getelementptr i8, ptr %1, i64 16
  %20 = load ptr, ptr %19, align 8, !tbaa !112
  %21 = call i32 @_PyEval_SliceIndexNotNone(ptr noundef %20, ptr noundef nonnull %5) #12
  %.not13 = icmp eq i32 %21, 0
  br i1 %.not13, label %list_index_impl.exit, label %._crit_edge

._crit_edge:                                      ; preds = %18
  %.pre = load i64, ptr %5, align 8, !tbaa !118
  br label %22

22:                                               ; preds = %._crit_edge, %16, %9
  %23 = phi i64 [ %.pre, %._crit_edge ], [ 9223372036854775807, %16 ], [ 9223372036854775807, %9 ]
  %24 = load i64, ptr %4, align 8, !tbaa !118
  %25 = icmp slt i64 %24, 0
  br i1 %25, label %26, label %29

26:                                               ; preds = %22
  %27 = getelementptr i8, ptr %0, i64 16
  %.val36.i = load i64, ptr %27, align 8, !tbaa !33
  %28 = add i64 %.val36.i, %24
  %spec.store.select.i = call i64 @llvm.smax.i64(i64 %28, i64 0)
  br label %29

29:                                               ; preds = %26, %22
  %.024.i = phi i64 [ %spec.store.select.i, %26 ], [ %24, %22 ]
  %30 = icmp slt i64 %23, 0
  br i1 %30, label %31, label %34

31:                                               ; preds = %29
  %32 = getelementptr i8, ptr %0, i64 16
  %.val.i = load i64, ptr %32, align 8, !tbaa !33
  %33 = add i64 %.val.i, %23
  %spec.store.select1.i = call i64 @llvm.smax.i64(i64 %33, i64 0)
  br label %34

34:                                               ; preds = %31, %29
  %.029.i = phi i64 [ %spec.store.select1.i, %31 ], [ %23, %29 ]
  %35 = icmp samesign ult i64 %.024.i, %.029.i
  br i1 %35, label %.lr.ph.i, label %.thread.i

.lr.ph.i:                                         ; preds = %34
  %36 = getelementptr i8, ptr %0, i64 16
  %37 = getelementptr inbounds nuw i8, ptr %0, i64 24
  br label %38

38:                                               ; preds = %list_get_item_ref.exit.i, %.lr.ph.i
  %.02856.i = phi i64 [ %.024.i, %.lr.ph.i ], [ %59, %list_get_item_ref.exit.i ]
  %.val.i.i = load i64, ptr %36, align 8, !tbaa !33
  %.not.i37.i = icmp ult i64 %.02856.i, %.val.i.i
  br i1 %.not.i37.i, label %39, label %.thread.i

39:                                               ; preds = %38
  %40 = load ptr, ptr %37, align 8, !tbaa !27
  %41 = getelementptr ptr, ptr %40, i64 %.02856.i
  %42 = load ptr, ptr %41, align 8, !tbaa !112
  %43 = load i32, ptr %42, align 8, !tbaa !32
  %44 = icmp slt i32 %43, 0
  br i1 %44, label %47, label %45

45:                                               ; preds = %39
  %46 = add nuw i32 %43, 1
  store i32 %46, ptr %42, align 8, !tbaa !32
  br label %47

47:                                               ; preds = %45, %39
  %48 = call i32 @PyObject_RichCompareBool(ptr noundef nonnull %42, ptr noundef %10, i32 noundef 2) #12
  %49 = load i32, ptr %42, align 8, !tbaa !32
  %.not.i.i = icmp sgt i32 %49, -1
  br i1 %.not.i.i, label %50, label %Py_DECREF.exit.i

50:                                               ; preds = %47
  %51 = add nsw i32 %49, -1
  store i32 %51, ptr %42, align 8, !tbaa !32
  %52 = icmp eq i32 %51, 0
  br i1 %52, label %53, label %Py_DECREF.exit.i

53:                                               ; preds = %50
  call void @_Py_Dealloc(ptr noundef nonnull %42) #12
  br label %Py_DECREF.exit.i

Py_DECREF.exit.i:                                 ; preds = %53, %50, %47
  %54 = icmp sgt i32 %48, 0
  br i1 %54, label %55, label %57

55:                                               ; preds = %Py_DECREF.exit.i
  %56 = call ptr @PyLong_FromSsize_t(i64 noundef %.02856.i) #12
  br label %list_index_impl.exit

57:                                               ; preds = %Py_DECREF.exit.i
  %58 = icmp slt i32 %48, 0
  br i1 %58, label %list_index_impl.exit, label %list_get_item_ref.exit.i

list_get_item_ref.exit.i:                         ; preds = %57
  %59 = add nuw nsw i64 %.02856.i, 1
  %exitcond.not.i = icmp eq i64 %59, %.029.i
  br i1 %exitcond.not.i, label %.thread.i, label %38, !llvm.loop !218

.thread.i:                                        ; preds = %list_get_item_ref.exit.i, %38, %34
  %60 = load ptr, ptr @PyExc_ValueError, align 8, !tbaa !112
  call void @PyErr_SetString(ptr noundef %60, ptr noundef nonnull @.str.38) #12
  br label %list_index_impl.exit

list_index_impl.exit:                             ; preds = %57, %.thread.i, %55, %18, %12, %7
  %.0 = phi ptr [ null, %18 ], [ null, %12 ], [ null, %7 ], [ null, %.thread.i ], [ %56, %55 ], [ null, %57 ]
  call void @llvm.lifetime.end.p0(i64 8, ptr nonnull %5) #12
  call void @llvm.lifetime.end.p0(i64 8, ptr nonnull %4) #12
  ret ptr %.0
}